Certificate:
    Data:
        Version: 1 (0x0)
        Serial Number: 1 (0x1)
    Signature Algorithm: md5WithRSAEncryption
        Issuer: C=CA, ST=Ontario, L=Toronto, O=g2minhleInc, OU=g2minhleDiv, CN=g2minhle.utoronto.ca/emailAddress=g2minhle@utoronto.ca
        Validity
            Not Before: Oct 19 21:24:45 2015 GMT
            Not After : Oct 18 21:24:45 2016 GMT
        Subject: C=CA, ST=Ontario, L=Toronto, O=g2minhle2Inc, OU=g2minhle2Div, CN=Bob's Server/emailAddress=ece568bob2@ecf.utoronto.ca
        Subject Public Key Info:
            Public Key Algorithm: rsaEncryption
                Public-Key: (2048 bit)
                Modulus:
                    00:b1:e2:fa:db:8b:cd:a4:e5:76:ff:eb:8e:9e:c5:
                    06:ea:3d:ab:c9:8c:65:61:22:a4:7d:6e:98:d6:d6:
                    9a:7a:69:7a:8b:cc:32:43:a2:5a:4b:c9:dc:a3:2f:
                    de:ec:58:75:a6:02:d2:21:f1:41:e2:b1:1c:62:1a:
                    01:cf:7d:dc:97:f3:7f:78:d6:61:b9:47:91:35:3f:
                    46:0a:83:1b:52:26:54:b3:2c:cd:fd:68:36:2c:d1:
                    a9:00:48:6e:7c:3f:15:5c:8d:18:37:36:a1:01:fb:
                    3e:c2:f8:7e:53:ad:95:2b:38:ee:4c:f9:ee:0d:8f:
                    81:54:f7:14:f8:aa:21:45:69:dc:ec:72:73:5f:45:
                    52:67:84:cc:68:36:3e:23:fb:7c:19:cc:dc:db:6e:
                    11:a4:89:20:46:b4:fd:40:ca:ac:11:06:f9:a1:3f:
                    6f:49:69:21:f4:d0:a2:7d:5a:b6:e1:26:3b:6a:5e:
                    a1:73:9d:65:70:1c:61:b3:45:34:41:8f:42:49:a5:
                    de:67:c4:68:be:f6:81:e4:f4:8b:06:64:4d:5e:55:
                    6d:01:b7:38:fa:a1:09:0e:f4:38:62:dc:08:26:0d:
                    9b:04:56:f4:f2:cb:6b:0e:ae:ab:f2:a8:f3:0c:a9:
                    67:09:a3:30:d4:4e:46:49:45:26:da:3b:36:cf:88:
                    80:93
                Exponent: 65537 (0x10001)
    Signature Algorithm: md5WithRSAEncryption
         b8:45:d5:8f:ab:c5:bd:f1:50:1e:6b:0f:bb:85:98:b1:ab:80:
         af:7c:b1:7f:6a:fc:6b:5e:8a:55:b8:f1:50:54:c5:ce:f1:6d:
         d3:b1:9c:c5:d2:26:e5:65:c6:03:16:41:4e:3e:ce:2c:88:55:
         d3:f1:a3:8a:d5:0e:e4:1d:65:b0:13:bf:6d:43:95:b8:7a:98:
         1e:7a:84:c6:ae:cf:91:71:cc:02:23:e3:85:ef:49:57:ce:78:
         40:56:6c:43:05:2b:4e:71:d4:09:87:5a:23:10:aa:12:dc:a1:
         51:40:45:0b:24:6f:15:9e:6c:c5:15:d5:f2:05:09:3a:6c:a6:
         4a:0c:87:d1:3e:ef:ad:2d:b9:b0:27:95:a8:a2:1b:40:a1:d0:
         e6:99:f0:f4:90:9b:bd:16:c2:44:ec:fc:88:08:8e:5e:09:32:
         1b:74:a1:46:d9:84:16:f4:1d:da:05:c1:03:9a:dd:3a:65:08:
         4b:9a:10:84:a8:02:68:68:04:59:8a:e1:52:fa:d1:83:7d:2e:
         0e:cc:66:40:c7:c5:48:d8:e2:52:58:9c:93:9b:4f:57:fa:fb:
         3f:83:2e:b1:17:3d:fa:c0:f0:07:8c:af:31:ad:0c:6e:3b:e8:
         8d:ba:e1:92:09:5b:70:15:73:5e:08:d4:6a:44:68:aa:a4:e3:
         93:68:1d:b3
-----BEGIN CERTIFICATE-----
MIIDuDCCAqACAQEwDQYJKoZIhvcNAQEEBQAwgaExCzAJBgNVBAYTAkNBMRAwDgYD
VQQIDAdPbnRhcmlvMRAwDgYDVQQHDAdUb3JvbnRvMRQwEgYDVQQKDAtnMm1pbmhs
ZUluYzEUMBIGA1UECwwLZzJtaW5obGVEaXYxHTAbBgNVBAMMFGcybWluaGxlLnV0
b3JvbnRvLmNhMSMwIQYJKoZIhvcNAQkBFhRnMm1pbmhsZUB1dG9yb250by5jYTAe
Fw0xNTEwMTkyMTI0NDVaFw0xNjEwMTgyMTI0NDVaMIGhMQswCQYDVQQGEwJDQTEQ
MA4GA1UECAwHT250YXJpbzEQMA4GA1UEBwwHVG9yb250bzEVMBMGA1UECgwMZzJt
aW5obGUySW5jMRUwEwYDVQQLDAxnMm1pbmhsZTJEaXYxFTATBgNVBAMMDEJvYidz
IFNlcnZlcjEpMCcGCSqGSIb3DQEJARYaZWNlNTY4Ym9iMkBlY2YudXRvcm9udG8u
Y2EwggEiMA0GCSqGSIb3DQEBAQUAA4IBDwAwggEKAoIBAQCx4vrbi82k5Xb/646e
xQbqPavJjGVhIqR9bpjW1pp6aXqLzDJDolpLydyjL97sWHWmAtIh8UHisRxiGgHP
fdyX83941mG5R5E1P0YKgxtSJlSzLM39aDYs0akASG58PxVcjRg3NqEB+z7C+H5T
rZUrOO5M+e4Nj4FU9xT4qiFFadzscnNfRVJnhMxoNj4j+3wZzNzbbhGkiSBGtP1A
yqwRBvmhP29JaSH00KJ9WrbhJjtqXqFznWVwHGGzRTRBj0JJpd5nxGi+9oHk9IsG
ZE1eVW0Btzj6oQkO9Dhi3AgmDZsEVvTyy2sOrqvyqPMMqWcJozDUTkZJRSbaOzbP
iICTAgMBAAEwDQYJKoZIhvcNAQEEBQADggEBALhF1Y+rxb3xUB5rD7uFmLGrgK98
sX9q/GteilW48VBUxc7xbdOxnMXSJuVlxgMWQU4+ziyIVdPxo4rVDuQdZbATv21D
lbh6mB56hMauz5FxzAIj44XvSVfOeEBWbEMFK05x1AmHWiMQqhLcoVFARQskbxWe
bMUV1fIFCTpspkoMh9E+760tubAnlaiiG0Ch0OaZ8PSQm70WwkTs/IgIjl4JMht0
oUbZhBb0HdoFwQOa3TplCEuaEISoAmhoBFmK4VL60YN9Lg7MZkDHxUjY4lJYnJOb
T1f6+z+DLrEXPfrA8AeMrzGtDG476I264ZIJW3AVc14I1GpEaKqk45NoHbM=
-----END CERTIFICATE-----
