Certificate:
    Data:
        Version: 1 (0x0)
        Serial Number: 2 (0x2)
    Signature Algorithm: md5WithRSAEncryption
        Issuer: C=CA, ST=Ontario, L=Toronto, O=g2minhleInc, OU=g2minhleDiv, CN=g2minhle.utoronto.ca/emailAddress=g2minhle@utoronto.ca
        Validity
            Not Before: Oct 19 21:25:12 2015 GMT
            Not After : Oct 18 21:25:12 2016 GMT
        Subject: C=CA, ST=Ontario, L=Toronto, O=g2minhle3Inc, OU=g2minhle3Div, CN=Alice/emailAddress=ece568alice@ecf.utoronto.ca
        Subject Public Key Info:
            Public Key Algorithm: rsaEncryption
                Public-Key: (2048 bit)
                Modulus:
                    00:ab:f9:8b:82:44:a0:66:b3:cd:a0:a2:a6:bf:15:
                    2e:4b:d8:d9:57:d9:58:2c:e6:88:7b:63:7e:0c:01:
                    bb:74:99:86:a4:3b:11:54:78:46:42:e4:12:12:dd:
                    ba:4c:49:78:62:cd:b8:db:83:b4:22:b3:8e:89:56:
                    bd:d9:3c:f7:2c:fc:54:dc:d5:84:77:40:40:a7:d3:
                    4b:ed:3a:ad:a9:d6:69:06:34:95:fd:df:3b:40:9f:
                    df:01:b6:46:3b:9e:8f:a2:98:45:bc:74:21:98:38:
                    72:f0:08:2f:0c:52:af:29:22:18:f1:29:e0:c3:c0:
                    8d:33:12:78:0f:ce:ee:3a:6f:d7:76:2e:0f:1b:b2:
                    47:e3:98:21:13:31:3c:b3:7c:42:56:4b:8b:d5:e8:
                    8a:ca:ed:ad:ea:d8:7b:60:ba:1f:74:7b:0e:94:86:
                    a5:3b:3e:ec:7b:0e:db:2b:51:5d:1c:0b:cf:97:63:
                    98:a3:06:86:4f:9f:7d:c1:0a:16:c2:75:d9:ad:c3:
                    1a:fa:e2:9c:08:af:93:0e:6d:71:48:31:70:e8:3f:
                    74:0d:c5:91:c6:80:9c:47:b3:50:da:45:55:0f:6d:
                    9e:f2:80:47:de:a4:16:f8:00:f2:4c:3e:7d:84:19:
                    82:7d:f9:3c:73:16:33:34:a6:73:c7:7a:67:38:a3:
                    53:ed
                Exponent: 65537 (0x10001)
    Signature Algorithm: md5WithRSAEncryption
         af:c7:ac:42:6f:71:d5:92:2c:4f:cb:05:51:69:6b:ac:0b:47:
         c9:02:5a:93:c1:0b:ad:a7:bd:2c:87:45:84:01:bc:ce:41:44:
         72:52:b9:cf:c0:38:0e:a2:3c:52:3d:72:60:ab:87:0d:ed:33:
         ba:19:e6:d9:82:3d:fe:c6:85:dd:ab:4f:0f:77:87:d4:92:8d:
         82:42:6d:8a:d6:b8:3d:c9:f7:72:fc:ec:ca:5f:d4:74:de:27:
         58:5b:3e:54:c1:9b:07:e2:40:db:59:75:34:d3:d8:10:6d:9c:
         51:3e:61:f3:5c:34:5f:23:fe:56:06:26:53:57:a8:76:aa:9c:
         b4:f8:6f:62:f8:d0:02:54:79:fc:ce:73:ac:2b:19:12:79:07:
         54:b4:80:80:dc:26:31:9a:bd:12:15:bf:36:16:28:a5:c4:48:
         ac:88:51:01:c5:37:34:28:4c:28:29:cd:a2:06:e8:62:15:ef:
         ff:da:14:af:21:d2:57:ee:ac:59:45:9a:f3:44:69:21:f5:09:
         2a:8f:ae:59:99:9c:31:60:c0:1a:97:67:61:f1:96:92:c8:c3:
         32:9f:f5:08:f7:0b:ab:a5:c8:6d:5e:12:f1:d2:3d:a6:4d:13:
         ef:46:55:6c:db:5a:cd:cd:39:a4:4a:15:27:4f:92:ec:7e:c6:
         b2:a6:da:c5
-----BEGIN CERTIFICATE-----
MIIDsjCCApoCAQIwDQYJKoZIhvcNAQEEBQAwgaExCzAJBgNVBAYTAkNBMRAwDgYD
VQQIDAdPbnRhcmlvMRAwDgYDVQQHDAdUb3JvbnRvMRQwEgYDVQQKDAtnMm1pbmhs
ZUluYzEUMBIGA1UECwwLZzJtaW5obGVEaXYxHTAbBgNVBAMMFGcybWluaGxlLnV0
b3JvbnRvLmNhMSMwIQYJKoZIhvcNAQkBFhRnMm1pbmhsZUB1dG9yb250by5jYTAe
Fw0xNTEwMTkyMTI1MTJaFw0xNjEwMTgyMTI1MTJaMIGbMQswCQYDVQQGEwJDQTEQ
MA4GA1UECAwHT250YXJpbzEQMA4GA1UEBwwHVG9yb250bzEVMBMGA1UECgwMZzJt
aW5obGUzSW5jMRUwEwYDVQQLDAxnMm1pbmhsZTNEaXYxDjAMBgNVBAMMBUFsaWNl
MSowKAYJKoZIhvcNAQkBFhtlY2U1NjhhbGljZUBlY2YudXRvcm9udG8uY2EwggEi
MA0GCSqGSIb3DQEBAQUAA4IBDwAwggEKAoIBAQCr+YuCRKBms82goqa/FS5L2NlX
2Vgs5oh7Y34MAbt0mYakOxFUeEZC5BIS3bpMSXhizbjbg7Qis46JVr3ZPPcs/FTc
1YR3QECn00vtOq2p1mkGNJX93ztAn98BtkY7no+imEW8dCGYOHLwCC8MUq8pIhjx
KeDDwI0zEngPzu46b9d2Lg8bskfjmCETMTyzfEJWS4vV6IrK7a3q2Htguh90ew6U
hqU7Pux7DtsrUV0cC8+XY5ijBoZPn33BChbCddmtwxr64pwIr5MObXFIMXDoP3QN
xZHGgJxHs1DaRVUPbZ7ygEfepBb4APJMPn2EGYJ9+TxzFjM0pnPHemc4o1PtAgMB
AAEwDQYJKoZIhvcNAQEEBQADggEBAK/HrEJvcdWSLE/LBVFpa6wLR8kCWpPBC62n
vSyHRYQBvM5BRHJSuc/AOA6iPFI9cmCrhw3tM7oZ5tmCPf7Ghd2rTw93h9SSjYJC
bYrWuD3J93L87Mpf1HTeJ1hbPlTBmwfiQNtZdTTT2BBtnFE+YfNcNF8j/lYGJlNX
qHaqnLT4b2L40AJUefzOc6wrGRJ5B1S0gIDcJjGavRIVvzYWKKXESKyIUQHFNzQo
TCgpzaIG6GIV7//aFK8h0lfurFlFmvNEaSH1CSqPrlmZnDFgwBqXZ2HxlpLIwzKf
9Qj3C6ulyG1eEvHSPaZNE+9GVWzbWs3NOaRKFSdPkux+xrKm2sU=
-----END CERTIFICATE-----
-----BEGIN PRIVATE KEY-----
MIIEvgIBADANBgkqhkiG9w0BAQEFAASCBKgwggSkAgEAAoIBAQCr+YuCRKBms82g
oqa/FS5L2NlX2Vgs5oh7Y34MAbt0mYakOxFUeEZC5BIS3bpMSXhizbjbg7Qis46J
Vr3ZPPcs/FTc1YR3QECn00vtOq2p1mkGNJX93ztAn98BtkY7no+imEW8dCGYOHLw
CC8MUq8pIhjxKeDDwI0zEngPzu46b9d2Lg8bskfjmCETMTyzfEJWS4vV6IrK7a3q
2Htguh90ew6UhqU7Pux7DtsrUV0cC8+XY5ijBoZPn33BChbCddmtwxr64pwIr5MO
bXFIMXDoP3QNxZHGgJxHs1DaRVUPbZ7ygEfepBb4APJMPn2EGYJ9+TxzFjM0pnPH
emc4o1PtAgMBAAECggEAEXHm7Pf5LXHf0gOt1oRXheohYf/yKdvYzGtzRdSHJ3TL
a61yPJdWyUJJcxB67XImfB9SOTJK+5orQ1NBPuAoUq/mC+C85zvlUyDj+tSQ+UF+
tdpvvKkAYbXV8V6EEVgsSdoYeN1u6voO7rply2I30nxa+1u8KR9HM38UHsZm9BZp
ugUibWvrPLAyfXkQeWUwuIdyAce3QDcElg6vZu/pTcdo4WNpOPWBaS5UGwRW6XbD
DICGKLw/7fLoFwXXzK9JFPerPmFVaxrivDp0DlugQDFbZ1NPdSc3u8Z9xxyS9ziw
yFNMWyikaoqpwXaFaor5fhCblbnfwATEbJZylbMrAQKBgQDU7FZX6bw2Wiy5y2Dx
50Fug0voGdwWzikTotHo/8FOe49aueQXBlTy2IaJQQMVVApIhM+Z3xsQv/4MV9YG
E1PaRmXOV6fM44kGj860vRDzzM1uojq/ZD1x1jvzB+2twYcMXR/tgRSAKnBEWdNf
RynVsjfmNH5QhCATO5COly/26QKBgQDOxGsbN5HsPONFe71Fd0thnu37fDaeMdJH
1Uzoa3j2B19HE8T1PUfXzHBlRXmkl7rOubfvnyrk/rtlUnyBVnIuEMUbuxUUScxe
oJ1+SJj+p41M3URShR/bxaK+VmkiEzpdjr/67OzyyoUdnWHrXeJF3O0ErA2poAYN
UUVfZwFaZQKBgQCB3/K+xxSFtrVHUvW8OAniRfX8CiIESxYlIxCU5cPcgmOrvG2T
WcphIo/VkrE1xkBLga87tSnGKsXkc4NZy1o/budUWIVC5ZtERF2aQyTfARJhpFTf
P153XGzOzgw9Cym78eWysiR2FOzL1Fqo6DhtX7rXETfnFuCVuqRvRWr9WQKBgQCH
R19EGWFxjIytoz28O0aoghD2HtilO7d2pAmDbv1fCoe9uyN7yDI+8FUBDSl/FH52
TnAXaK3p0PfOXN90x5hAp1wuvoIWGgqKRs+EFf9zbTA3f/T5gHvNkErf+S0jzCy9
lW3pwCVu3C2nqJauJWiriNXR3re5qScMg4W922i5OQKBgFMCKJfxXA77aG9UuFYv
/Y5eodVHgwD3qaBs19arJ0gT3rQSlLsIzTMciinKBg7XgyWQjb6ifJBSipdtOR/J
+0WyZqpWgO9QseG3tfiuRrt05I24oOvB4iozoeRPY4sNHRk2nPWvHYDVf1MFupjn
lCktORG2hCeh/wMLfJ2972Dt
-----END PRIVATE KEY-----
