Certificate:
    Data:
        Version: 1 (0x0)
        Serial Number: 1 (0x1)
    Signature Algorithm: md5WithRSAEncryption
        Issuer: C=CA, ST=Ontario, L=Toronto, O=g2minhleInc, OU=g2minhleDiv, CN=g2minhle.utoronto.ca/emailAddress=g2minhle@utoronto.ca
        Validity
            Not Before: Oct 20 04:33:35 2015 GMT
            Not After : Oct 19 04:33:35 2016 GMT
        Subject: C=CA, ST=Ontario, L=Toronto, O=g2minhle3Inc, OU=g2minhle3Div, CN=Alice/emailAddress=ece568alice@ecf.utoronto.ca
        Subject Public Key Info:
            Public Key Algorithm: rsaEncryption
                Public-Key: (2048 bit)
                Modulus:
                    00:bd:17:6a:a6:7f:4c:c0:d7:1e:40:7f:db:72:1e:
                    1f:a5:7e:17:24:16:9b:d7:fa:65:b9:44:ca:0c:ee:
                    ae:a6:a4:43:c6:b1:cd:6a:fc:3e:21:3f:9f:4d:cd:
                    7a:df:10:0d:d0:a1:99:bb:fa:fb:47:80:4f:e5:74:
                    a9:db:f9:fe:f8:de:9e:04:ba:ff:52:2e:68:20:bc:
                    26:d9:cc:24:83:d8:71:11:8c:33:78:da:d0:00:62:
                    dd:17:7a:ff:01:7e:ec:6c:20:4e:2e:1d:75:21:cb:
                    01:62:7e:e5:02:cc:70:ec:47:43:73:8c:8d:58:08:
                    b6:1b:a5:fc:df:16:4a:49:cc:6c:1d:19:23:95:92:
                    23:f6:c7:12:d6:48:5f:a8:d1:24:90:c2:39:d5:ed:
                    33:35:5c:e1:93:3f:32:b9:d2:cf:ff:81:b4:58:0f:
                    6d:57:37:ec:d8:97:fe:73:ba:61:0d:3f:39:b7:66:
                    f3:cb:54:db:24:ae:5a:a9:e7:32:af:c2:f4:c0:8d:
                    9b:df:f5:2e:1a:73:f6:6e:eb:ea:95:12:55:a5:63:
                    ef:d6:00:93:f1:de:98:96:a2:2b:d7:8e:e4:c6:af:
                    85:16:ee:bf:a0:ef:b7:c8:9c:e9:f2:0c:97:b3:21:
                    d0:12:85:97:36:ae:69:79:4e:32:8d:c9:2d:e9:d9:
                    fd:eb
                Exponent: 65537 (0x10001)
    Signature Algorithm: md5WithRSAEncryption
         44:15:16:08:30:eb:f6:43:45:29:a4:17:07:3f:d4:06:28:e0:
         b2:b4:05:9d:bf:b6:d5:32:4e:e3:f7:c4:2e:c3:58:70:13:9e:
         59:9d:c8:de:03:86:9d:c3:4b:a5:8c:78:bf:3b:9a:ac:8d:a5:
         18:6d:1f:5d:7e:7c:e0:43:1b:2b:c0:19:f9:a1:43:3a:44:df:
         f8:fd:40:ef:fb:af:16:3d:0d:04:6c:cf:87:a8:7a:f6:1a:41:
         8b:ca:2f:ea:82:be:cb:b1:7c:9b:c0:5b:c5:c7:47:01:20:f2:
         c0:7b:83:60:0f:dc:f0:b7:ac:07:05:90:96:f2:ef:28:cf:56:
         25:08:1d:b7:a5:30:22:96:8d:3e:f8:20:0f:c1:a0:cb:f2:3e:
         a7:f9:11:99:6d:35:2f:05:b9:83:8e:fb:45:78:c1:da:f8:65:
         79:b6:72:0e:ef:b0:54:37:66:35:13:f9:8f:88:6c:d6:d6:22:
         93:43:d7:e1:bd:04:99:29:ff:7e:68:f8:38:c2:6e:86:51:ac:
         c9:42:1c:52:bc:9f:fc:19:ee:ca:dd:2c:a8:62:f9:b0:92:8f:
         9b:22:e8:1b:e3:25:7d:37:6a:eb:2e:6d:10:0d:8e:dc:80:5d:
         d3:0b:cd:a5:d1:36:24:1b:f9:78:f9:2c:bf:c7:e1:c3:02:19:
         a4:62:a6:f7
-----BEGIN CERTIFICATE-----
MIIDsjCCApoCAQEwDQYJKoZIhvcNAQEEBQAwgaExCzAJBgNVBAYTAkNBMRAwDgYD
VQQIDAdPbnRhcmlvMRAwDgYDVQQHDAdUb3JvbnRvMRQwEgYDVQQKDAtnMm1pbmhs
ZUluYzEUMBIGA1UECwwLZzJtaW5obGVEaXYxHTAbBgNVBAMMFGcybWluaGxlLnV0
b3JvbnRvLmNhMSMwIQYJKoZIhvcNAQkBFhRnMm1pbmhsZUB1dG9yb250by5jYTAe
Fw0xNTEwMjAwNDMzMzVaFw0xNjEwMTkwNDMzMzVaMIGbMQswCQYDVQQGEwJDQTEQ
MA4GA1UECAwHT250YXJpbzEQMA4GA1UEBwwHVG9yb250bzEVMBMGA1UECgwMZzJt
aW5obGUzSW5jMRUwEwYDVQQLDAxnMm1pbmhsZTNEaXYxDjAMBgNVBAMMBUFsaWNl
MSowKAYJKoZIhvcNAQkBFhtlY2U1NjhhbGljZUBlY2YudXRvcm9udG8uY2EwggEi
MA0GCSqGSIb3DQEBAQUAA4IBDwAwggEKAoIBAQC9F2qmf0zA1x5Af9tyHh+lfhck
FpvX+mW5RMoM7q6mpEPGsc1q/D4hP59NzXrfEA3QoZm7+vtHgE/ldKnb+f743p4E
uv9SLmggvCbZzCSD2HERjDN42tAAYt0Xev8BfuxsIE4uHXUhywFifuUCzHDsR0Nz
jI1YCLYbpfzfFkpJzGwdGSOVkiP2xxLWSF+o0SSQwjnV7TM1XOGTPzK50s//gbRY
D21XN+zYl/5zumENPzm3ZvPLVNskrlqp5zKvwvTAjZvf9S4ac/Zu6+qVElWlY+/W
AJPx3piWoivXjuTGr4UW7r+g77fInOnyDJezIdAShZc2rml5TjKNyS3p2f3rAgMB
AAEwDQYJKoZIhvcNAQEEBQADggEBAEQVFggw6/ZDRSmkFwc/1AYo4LK0BZ2/ttUy
TuP3xC7DWHATnlmdyN4Dhp3DS6WMeL87mqyNpRhtH11+fOBDGyvAGfmhQzpE3/j9
QO/7rxY9DQRsz4eoevYaQYvKL+qCvsuxfJvAW8XHRwEg8sB7g2AP3PC3rAcFkJby
7yjPViUIHbelMCKWjT74IA/BoMvyPqf5EZltNS8FuYOO+0V4wdr4ZXm2cg7vsFQ3
ZjUT+Y+IbNbWIpND1+G9BJkp/35o+DjCboZRrMlCHFK8n/wZ7srdLKhi+bCSj5si
6BvjJX03ausubRANjtyAXdMLzaXRNiQb+Xj5LL/H4cMCGaRipvc=
-----END CERTIFICATE-----
