Certificate:
    Data:
        Version: 1 (0x0)
        Serial Number: 1 (0x1)
    Signature Algorithm: md5WithRSAEncryption
        Issuer: C=CA, ST=Ontario, L=Toronto, O=g2minhleInc, OU=g2minhleDiv, CN=g2minhle.utoronto.ca/emailAddress=g2minhle@utoronto.ca
        Validity
            Not Before: Oct 19 20:55:08 2015 GMT
            Not After : Oct 18 20:55:08 2016 GMT
        Subject: C=CA, ST=Ontario, L=Toronto, O=g2minhle2Inc, OU=g2minhle2Div, CN=Bob's Server2/emailAddress=ece568bob@ecf.utoronto.ca
        Subject Public Key Info:
            Public Key Algorithm: rsaEncryption
                Public-Key: (2048 bit)
                Modulus:
                    00:ed:01:a8:0c:9f:7e:14:bf:af:68:5b:ff:a0:4d:
                    6f:e0:5a:eb:45:fe:3c:8d:38:7f:6a:d8:98:46:a5:
                    27:3f:e7:2f:c1:59:be:14:59:92:61:2a:8b:30:81:
                    2d:73:f9:70:5a:54:1b:c7:a4:ed:02:7e:16:38:de:
                    a7:86:4b:26:73:89:05:7d:ad:07:2a:34:40:2a:06:
                    cc:6f:ed:4f:e3:ff:92:92:fc:b1:ff:ab:3b:07:77:
                    6d:ce:e1:a5:52:8e:e7:91:ac:0c:05:40:9d:98:a4:
                    45:15:df:74:ae:1a:9e:c0:de:71:dd:ef:ba:32:a7:
                    2c:85:3e:ef:68:a5:97:1e:c4:01:4f:33:ae:05:3f:
                    fc:cf:1c:2c:92:e0:d9:d4:f0:c7:67:e9:11:96:0d:
                    65:3b:f2:4f:f0:1a:d0:36:f0:3f:82:13:c3:6f:67:
                    ac:70:63:d4:76:2d:8d:ea:47:c7:1c:8d:28:b4:01:
                    07:b1:8d:cc:19:ab:b6:4d:a2:d5:4c:38:14:8c:db:
                    63:b2:dc:32:da:1d:46:6b:dc:fc:49:cf:8f:85:b2:
                    a8:9e:a4:45:83:6b:b5:84:b3:85:b7:f1:37:a9:fd:
                    af:ba:fb:53:96:2f:09:7a:50:3a:bf:29:78:14:a5:
                    23:cd:d7:ff:16:1d:57:d3:58:1c:3d:2b:4a:7a:a5:
                    39:4b
                Exponent: 65537 (0x10001)
    Signature Algorithm: md5WithRSAEncryption
         72:71:79:11:e8:3c:cb:a7:c5:c7:d8:11:7e:99:1b:35:0b:fd:
         6b:b5:44:7c:55:98:86:85:bb:c8:1e:9d:ae:89:77:a5:a6:18:
         ca:a5:59:10:51:ca:da:91:96:a1:72:25:ac:c5:86:14:ba:7a:
         b2:89:46:3b:53:61:0e:bb:bc:37:23:e3:8d:94:b2:ab:13:0a:
         48:e9:01:41:d8:26:db:d2:be:c8:0f:26:1e:89:0f:e7:3f:86:
         4d:46:ed:81:21:20:c1:a7:12:c8:6b:cf:92:b7:f5:25:df:8d:
         c2:4a:37:83:59:5e:93:b3:39:be:f4:5e:7b:1b:a2:5f:51:0a:
         58:9b:d3:f8:67:21:b9:63:d6:45:2a:3a:d9:05:32:e9:fb:d7:
         48:7c:6a:8c:7d:9c:ad:e1:1d:ae:6e:0c:29:cb:77:50:3d:a0:
         39:83:61:c2:3b:f3:64:da:3c:a9:0e:de:c5:2d:ef:51:d2:54:
         d8:88:c5:ac:a0:e6:df:10:a5:48:39:57:da:9c:79:80:27:a6:
         80:6f:40:f3:cb:5a:44:04:d3:4b:3c:b8:46:7a:50:ed:3b:47:
         cd:3a:85:fa:a3:65:e9:27:f5:77:08:31:36:01:ea:67:6f:d8:
         b4:20:58:eb:b7:9e:5a:6c:86:11:5e:80:21:ba:97:b7:f5:94:
         db:72:86:03
-----BEGIN CERTIFICATE-----
MIIDuDCCAqACAQEwDQYJKoZIhvcNAQEEBQAwgaExCzAJBgNVBAYTAkNBMRAwDgYD
VQQIDAdPbnRhcmlvMRAwDgYDVQQHDAdUb3JvbnRvMRQwEgYDVQQKDAtnMm1pbmhs
ZUluYzEUMBIGA1UECwwLZzJtaW5obGVEaXYxHTAbBgNVBAMMFGcybWluaGxlLnV0
b3JvbnRvLmNhMSMwIQYJKoZIhvcNAQkBFhRnMm1pbmhsZUB1dG9yb250by5jYTAe
Fw0xNTEwMTkyMDU1MDhaFw0xNjEwMTgyMDU1MDhaMIGhMQswCQYDVQQGEwJDQTEQ
MA4GA1UECAwHT250YXJpbzEQMA4GA1UEBwwHVG9yb250bzEVMBMGA1UECgwMZzJt
aW5obGUySW5jMRUwEwYDVQQLDAxnMm1pbmhsZTJEaXYxFjAUBgNVBAMMDUJvYidz
IFNlcnZlcjIxKDAmBgkqhkiG9w0BCQEWGWVjZTU2OGJvYkBlY2YudXRvcm9udG8u
Y2EwggEiMA0GCSqGSIb3DQEBAQUAA4IBDwAwggEKAoIBAQDtAagMn34Uv69oW/+g
TW/gWutF/jyNOH9q2JhGpSc/5y/BWb4UWZJhKoswgS1z+XBaVBvHpO0CfhY43qeG
SyZziQV9rQcqNEAqBsxv7U/j/5KS/LH/qzsHd23O4aVSjueRrAwFQJ2YpEUV33Su
Gp7A3nHd77oypyyFPu9opZcexAFPM64FP/zPHCyS4NnU8Mdn6RGWDWU78k/wGtA2
8D+CE8NvZ6xwY9R2LY3qR8ccjSi0AQexjcwZq7ZNotVMOBSM22Oy3DLaHUZr3PxJ
z4+FsqiepEWDa7WEs4W38Tep/a+6+1OWLwl6UDq/KXgUpSPN1/8WHVfTWBw9K0p6
pTlLAgMBAAEwDQYJKoZIhvcNAQEEBQADggEBAHJxeRHoPMunxcfYEX6ZGzUL/Wu1
RHxVmIaFu8gena6Jd6WmGMqlWRBRytqRlqFyJazFhhS6erKJRjtTYQ67vDcj442U
sqsTCkjpAUHYJtvSvsgPJh6JD+c/hk1G7YEhIMGnEshrz5K39SXfjcJKN4NZXpOz
Ob70Xnsbol9RClib0/hnIblj1kUqOtkFMun710h8aox9nK3hHa5uDCnLd1A9oDmD
YcI782TaPKkO3sUt71HSVNiIxayg5t8QpUg5V9qceYAnpoBvQPPLWkQE00s8uEZ6
UO07R806hfqjZekn9XcIMTYB6mdv2LQgWOu3nlpshhFegCG6l7f1lNtyhgM=
-----END CERTIFICATE-----
