Certificate:
    Data:
        Version: 1 (0x0)
        Serial Number: 1 (0x1)
    Signature Algorithm: md5WithRSAEncryption
        Issuer: C=CA, ST=Ontario, L=Toronto, O=g2minhleInc, OU=g2minhleDiv, CN=g2minhle.utoronto.ca/emailAddress=g2minhle@utoronto.ca
        Validity
            Not Before: Oct 19 20:47:17 2015 GMT
            Not After : Oct 18 20:47:17 2016 GMT
        Subject: C=CA, ST=Ontario, L=Toronto, O=g2minhle2Inc, OU=g2minhle2Div, CN=Bob's Server/emailAddress=ece568bob@ecf.utoronto.ca
        Subject Public Key Info:
            Public Key Algorithm: rsaEncryption
                Public-Key: (2048 bit)
                Modulus:
                    00:c8:29:fa:f1:ee:49:13:16:60:72:ff:16:b4:bc:
                    45:3c:08:b8:e2:f4:ad:f5:f2:30:33:67:05:00:fb:
                    35:52:1e:8f:d0:64:a7:a5:83:20:e8:d7:c7:b1:4f:
                    90:c6:8a:c1:ef:1c:96:a2:65:e0:9b:3e:a2:db:60:
                    4c:34:34:66:c5:67:db:5d:c0:fa:12:65:7d:b1:b7:
                    5b:0d:85:ae:83:05:3f:2e:41:21:54:bc:1a:d6:c5:
                    21:ab:84:e7:6d:07:bc:27:ca:0e:b8:e0:98:c1:d0:
                    5f:be:43:0b:4a:c0:a2:54:00:eb:90:36:87:85:74:
                    cc:32:5c:35:f2:13:87:29:3b:82:22:b1:69:97:c5:
                    b5:f6:0a:7a:ea:5b:74:8e:ac:78:0b:31:ea:b0:f4:
                    7d:59:be:83:fc:4f:64:41:20:b9:48:08:aa:6a:a3:
                    97:ad:cb:4c:f5:7b:7c:a4:33:88:71:7d:44:df:b4:
                    bb:3f:e3:77:5c:53:5a:21:37:38:a2:a9:de:45:fd:
                    22:5f:33:b4:7e:6b:a9:34:f5:07:65:73:b1:d7:40:
                    0f:11:08:26:b9:1a:e2:d6:c1:ca:da:0e:52:27:d0:
                    26:bb:99:72:f2:61:b2:1b:16:af:9b:45:70:c3:d5:
                    63:81:95:66:18:3a:ef:dd:60:7d:07:0b:36:8d:bf:
                    bf:b5
                Exponent: 65537 (0x10001)
    Signature Algorithm: md5WithRSAEncryption
         06:4f:ee:fa:db:77:b9:70:b7:a0:89:6a:1b:10:c5:8c:06:da:
         32:a7:6d:86:15:f1:40:55:d9:86:31:19:c9:e1:39:2d:e0:45:
         af:05:d8:e0:f4:81:14:46:f3:76:77:8f:84:4d:2d:ca:22:57:
         4b:23:ee:bb:63:f6:5e:32:30:1b:33:c2:a3:8b:10:bb:58:f7:
         ec:da:e3:a3:97:a5:0d:f9:03:64:5f:6b:3f:2c:a6:10:93:9b:
         85:aa:c6:cc:a6:16:6b:bf:e5:ac:aa:1c:48:ad:fa:76:31:0e:
         94:27:f0:95:6a:50:4e:bc:ac:1e:a9:ad:0d:a9:33:c2:e2:43:
         1d:ba:a5:b4:c6:32:b4:a6:e8:c6:42:db:f5:b7:35:7f:3a:3f:
         a6:0c:7e:77:81:64:e3:3c:5b:2f:d9:b6:d4:6c:95:71:2e:22:
         c5:13:b4:d6:da:45:21:02:cf:20:a6:6b:1f:7e:ba:b5:04:a7:
         83:2f:b9:89:dc:b9:61:c8:3f:81:b9:82:d2:51:c7:f3:e1:31:
         43:99:ed:3d:9a:92:74:ec:63:ed:3d:10:db:d7:f7:9f:01:bb:
         e4:59:00:39:94:08:e9:48:98:58:1a:51:ab:15:50:03:ca:86:
         29:61:8c:c5:17:f2:ec:ae:a5:dd:f2:3f:56:d4:59:97:c1:2c:
         94:1e:ea:ce
-----BEGIN CERTIFICATE-----
MIIDtzCCAp8CAQEwDQYJKoZIhvcNAQEEBQAwgaExCzAJBgNVBAYTAkNBMRAwDgYD
VQQIDAdPbnRhcmlvMRAwDgYDVQQHDAdUb3JvbnRvMRQwEgYDVQQKDAtnMm1pbmhs
ZUluYzEUMBIGA1UECwwLZzJtaW5obGVEaXYxHTAbBgNVBAMMFGcybWluaGxlLnV0
b3JvbnRvLmNhMSMwIQYJKoZIhvcNAQkBFhRnMm1pbmhsZUB1dG9yb250by5jYTAe
Fw0xNTEwMTkyMDQ3MTdaFw0xNjEwMTgyMDQ3MTdaMIGgMQswCQYDVQQGEwJDQTEQ
MA4GA1UECAwHT250YXJpbzEQMA4GA1UEBwwHVG9yb250bzEVMBMGA1UECgwMZzJt
aW5obGUySW5jMRUwEwYDVQQLDAxnMm1pbmhsZTJEaXYxFTATBgNVBAMMDEJvYidz
IFNlcnZlcjEoMCYGCSqGSIb3DQEJARYZZWNlNTY4Ym9iQGVjZi51dG9yb250by5j
YTCCASIwDQYJKoZIhvcNAQEBBQADggEPADCCAQoCggEBAMgp+vHuSRMWYHL/FrS8
RTwIuOL0rfXyMDNnBQD7NVIej9Bkp6WDIOjXx7FPkMaKwe8clqJl4Js+ottgTDQ0
ZsVn213A+hJlfbG3Ww2FroMFPy5BIVS8GtbFIauE520HvCfKDrjgmMHQX75DC0rA
olQA65A2h4V0zDJcNfIThyk7giKxaZfFtfYKeupbdI6seAsx6rD0fVm+g/xPZEEg
uUgIqmqjl63LTPV7fKQziHF9RN+0uz/jd1xTWiE3OKKp3kX9Il8ztH5rqTT1B2Vz
sddADxEIJrka4tbBytoOUifQJruZcvJhshsWr5tFcMPVY4GVZhg6791gfQcLNo2/
v7UCAwEAATANBgkqhkiG9w0BAQQFAAOCAQEABk/u+tt3uXC3oIlqGxDFjAbaMqdt
hhXxQFXZhjEZyeE5LeBFrwXY4PSBFEbzdnePhE0tyiJXSyPuu2P2XjIwGzPCo4sQ
u1j37Nrjo5elDfkDZF9rPyymEJObharGzKYWa7/lrKocSK36djEOlCfwlWpQTrys
HqmtDakzwuJDHbqltMYytKboxkLb9bc1fzo/pgx+d4Fk4zxbL9m21GyVcS4ixRO0
1tpFIQLPIKZrH366tQSngy+5idy5Ycg/gbmC0lHH8+ExQ5ntPZqSdOxj7T0Q29f3
nwG75FkAOZQI6UiYWBpRqxVQA8qGKWGMxRfy7K6l3fI/VtRZl8EslB7qzg==
-----END CERTIFICATE-----
-----BEGIN PRIVATE KEY-----
MIIEvgIBADANBgkqhkiG9w0BAQEFAASCBKgwggSkAgEAAoIBAQDIKfrx7kkTFmBy
/xa0vEU8CLji9K318jAzZwUA+zVSHo/QZKelgyDo18exT5DGisHvHJaiZeCbPqLb
YEw0NGbFZ9tdwPoSZX2xt1sNha6DBT8uQSFUvBrWxSGrhOdtB7wnyg644JjB0F++
QwtKwKJUAOuQNoeFdMwyXDXyE4cpO4IisWmXxbX2CnrqW3SOrHgLMeqw9H1ZvoP8
T2RBILlICKpqo5ety0z1e3ykM4hxfUTftLs/43dcU1ohNziiqd5F/SJfM7R+a6k0
9Qdlc7HXQA8RCCa5GuLWwcraDlIn0Ca7mXLyYbIbFq+bRXDD1WOBlWYYOu/dYH0H
CzaNv7+1AgMBAAECggEBALrY/UkDj7FCrSwL1S1HpjWBSt2JXC5/MuF45GHjHgYX
Q1Zb72cAfiL88osg49uCQcCsZi0Yfs9MbAfu35PH6ruR1GOzNX0gwnG34EZCKQJj
TnQmFjAcG82qXWDYApRzqP9XjeCkv9QEaKuZuBvCsIVMCpknXeCFg+vqyey8r+oa
2rMitkiSwi7Il4VDOpLR28XOUnmpKp4Ho/3yot06C2Z4GptFVeUzO0iZv8/MOYJo
mrmAj7sCj3kBMuzCn2uTLKZcy15wikEDQsEVFi66kGCjuuMvnC45oPU8r6/gNOfx
gklUXAgai3N1t5ubgYi43ZmF9j/4HxO8P1Qd0JmMaw0CgYEA/AmveWUuljKEEhP6
OaFuqgzf2NZ0xlGYRsuJ16uj3lM9eUap4SUKpYbY1CgPNF1a2wZkzg2bGlXIHu6i
r2M2R8Hn153YIezQNy6Zxf520KpbHEH6VRbMml9GQ96TdwVye+3TdpaD178aBzBE
yP/DjIDHQ25DiOZ8Zpq7DmDqyb8CgYEAy0+H6ghUgJ4mOcc7kMK3Rr2qDKGYI6Im
ME/l6/4vr1JLyKRDJ+edzpiqR91pjGeVNExh/HjQAjjV5I5YgwMS7FkI2BFLzVjl
SIVPE8ZANYKxyi9tTAEcx1s1dPHHzqA7a23UsWx0wDFxDkxvCRtLqkshHdbi5cdY
K/a64sSnC4sCgYAuMOw6+GNIXau80HJ8m2x3t/JSgENYkV2yI914bFmVBnZuwpeh
zrMb0RHuGAVpWG6tU4eoB/BULEKIAL5KHIm3Lv95kdEprogehOjj05Yc+gvGqwTh
EVOgOzPafnFST+pCcjzeMAmrwbdYd+0zVUSWfIeIgS3ZajyEZXlA0lxVawKBgQCF
WjMBtFkIy7Ky7xUIzE6+XaTuCAfsR2zY/28FrYHFcys1/Vf3EpqVadk2remPKFnb
JcaXfP6ilnjlIuC3fgqpb3S3lBCuLgKl4JqPk9eFwaWvwg/kbE5eDFsxy2yNANg4
jJ+XiFXDwiovgL7LsFWe6wxbsBi/MlOI8pp+JxKSJQKBgAsEnnhQa7se+vtyNu64
KT2KKy78nRE44qR8oMEvOS9uDgWoVrF1rg0Z0MjeC2cxoLX2LheoSDBqFjr42Lyu
fNDwTtaHMKsbgHQv4DbdRRs4hgcEYcIbMfVbsU+sA8mazuUVAUADhyXSw/WeTftN
95UKtuqZ1YiRQuVpUGu7JPFx
-----END PRIVATE KEY-----
