Certificate:
    Data:
        Version: 1 (0x0)
        Serial Number: 2 (0x2)
    Signature Algorithm: md5WithRSAEncryption
        Issuer: C=CA, ST=Ontario, L=Toronto, O=g2minhleInc, OU=g2minhleDiv, CN=g2minhle.utoronto.ca/emailAddress=g2minhle@utoronto.ca
        Validity
            Not Before: Oct 19 20:55:23 2015 GMT
            Not After : Oct 18 20:55:23 2016 GMT
        Subject: C=CA, ST=Ontario, L=Toronto, O=g2minhle3Inc, OU=g2minhle3Div, CN=Alice/emailAddress=ece568alice@ecf.utoronto.ca
        Subject Public Key Info:
            Public Key Algorithm: rsaEncryption
                Public-Key: (2048 bit)
                Modulus:
                    00:b3:e0:fe:1c:c2:72:02:ee:44:e9:9a:f5:27:97:
                    e5:ea:b6:0b:0b:ac:f8:7c:e3:75:82:9f:29:be:fb:
                    43:e5:10:90:c3:8c:80:bb:9f:28:72:16:92:3a:9f:
                    21:8d:5a:c2:0d:82:53:04:88:22:36:e9:76:b0:a2:
                    9c:50:18:fa:db:03:e5:27:e8:60:0d:bb:10:f3:24:
                    c5:05:de:f7:a3:54:61:86:36:9a:13:7a:d2:ac:38:
                    d4:44:fa:4f:b7:d9:25:8f:ae:3b:ad:0b:05:11:a7:
                    1c:44:c8:77:36:c3:cb:61:0b:a8:eb:db:d2:e3:9e:
                    5b:75:39:c9:f0:81:17:9d:f8:e4:38:90:34:17:82:
                    bc:ec:cc:30:8d:0f:d3:29:51:48:8e:d8:b8:bb:34:
                    60:22:ec:d3:1f:c9:db:e4:13:64:b7:73:a2:88:7d:
                    d1:ec:45:b3:df:e0:dd:dd:28:8a:86:b8:1f:95:78:
                    e6:19:62:5a:92:43:0f:c9:a8:f2:e9:ea:87:3d:9a:
                    f7:8d:2d:2a:3e:83:42:85:4a:33:ba:61:14:83:79:
                    ec:36:6c:15:ba:61:ea:78:48:34:64:b9:3f:37:67:
                    11:cc:e6:75:bc:f0:27:d6:7b:f4:f4:24:21:78:aa:
                    34:2f:51:44:ae:3e:03:ee:6f:89:a4:38:ba:f6:4f:
                    b7:5b
                Exponent: 65537 (0x10001)
    Signature Algorithm: md5WithRSAEncryption
         1b:32:f8:30:09:72:f5:9b:77:08:22:7a:37:a2:00:45:4c:42:
         8a:df:3e:d9:fa:2e:2b:b6:0b:59:84:fd:f0:31:70:31:21:f4:
         14:0f:88:bb:4f:4d:dc:1b:47:5c:2f:e9:2d:d4:29:31:68:21:
         07:f1:d3:31:6f:94:9e:9a:65:34:e3:53:b4:2d:99:6e:85:32:
         65:85:48:a2:6e:d8:dd:13:0f:17:51:b1:d6:a9:5a:82:89:0c:
         d4:e5:ad:3a:07:eb:c9:65:c6:29:f6:7e:e0:9e:db:8f:00:4b:
         6c:75:5e:78:ab:10:bc:3c:0c:36:37:1e:28:d6:92:85:e7:06:
         58:44:d4:d8:86:aa:af:22:a2:d6:6c:5c:07:2f:d9:12:6c:31:
         e6:84:2d:52:f4:49:16:42:a3:df:d3:e8:fe:d4:fc:41:57:93:
         1a:c7:a6:7c:4f:3f:52:5d:e2:b1:14:64:39:e7:f7:7f:a4:80:
         2f:83:53:50:0b:bb:8c:65:1a:9c:3f:b8:49:db:f5:a3:e8:3b:
         f6:fa:46:c6:7a:60:90:5e:3b:4b:68:3a:d5:de:23:73:fd:d9:
         0c:2c:ca:d8:fa:63:76:f8:23:5e:5c:62:94:cd:cd:e3:05:51:
         df:1d:8d:c9:39:33:88:d2:d8:c3:77:22:61:de:1e:18:1d:bb:
         f7:c5:65:37
-----BEGIN CERTIFICATE-----
MIIDsjCCApoCAQIwDQYJKoZIhvcNAQEEBQAwgaExCzAJBgNVBAYTAkNBMRAwDgYD
VQQIDAdPbnRhcmlvMRAwDgYDVQQHDAdUb3JvbnRvMRQwEgYDVQQKDAtnMm1pbmhs
ZUluYzEUMBIGA1UECwwLZzJtaW5obGVEaXYxHTAbBgNVBAMMFGcybWluaGxlLnV0
b3JvbnRvLmNhMSMwIQYJKoZIhvcNAQkBFhRnMm1pbmhsZUB1dG9yb250by5jYTAe
Fw0xNTEwMTkyMDU1MjNaFw0xNjEwMTgyMDU1MjNaMIGbMQswCQYDVQQGEwJDQTEQ
MA4GA1UECAwHT250YXJpbzEQMA4GA1UEBwwHVG9yb250bzEVMBMGA1UECgwMZzJt
aW5obGUzSW5jMRUwEwYDVQQLDAxnMm1pbmhsZTNEaXYxDjAMBgNVBAMMBUFsaWNl
MSowKAYJKoZIhvcNAQkBFhtlY2U1NjhhbGljZUBlY2YudXRvcm9udG8uY2EwggEi
MA0GCSqGSIb3DQEBAQUAA4IBDwAwggEKAoIBAQCz4P4cwnIC7kTpmvUnl+XqtgsL
rPh843WCnym++0PlEJDDjIC7nyhyFpI6nyGNWsINglMEiCI26XawopxQGPrbA+Un
6GANuxDzJMUF3vejVGGGNpoTetKsONRE+k+32SWPrjutCwURpxxEyHc2w8thC6jr
29Ljnlt1OcnwgRed+OQ4kDQXgrzszDCND9MpUUiO2Li7NGAi7NMfydvkE2S3c6KI
fdHsRbPf4N3dKIqGuB+VeOYZYlqSQw/JqPLp6oc9mveNLSo+g0KFSjO6YRSDeew2
bBW6Yep4SDRkuT83ZxHM5nW88CfWe/T0JCF4qjQvUUSuPgPub4mkOLr2T7dbAgMB
AAEwDQYJKoZIhvcNAQEEBQADggEBABsy+DAJcvWbdwgiejeiAEVMQorfPtn6Liu2
C1mE/fAxcDEh9BQPiLtPTdwbR1wv6S3UKTFoIQfx0zFvlJ6aZTTjU7QtmW6FMmWF
SKJu2N0TDxdRsdapWoKJDNTlrToH68llxin2fuCe248AS2x1XnirELw8DDY3HijW
koXnBlhE1NiGqq8iotZsXAcv2RJsMeaELVL0SRZCo9/T6P7U/EFXkxrHpnxPP1Jd
4rEUZDnn93+kgC+DU1ALu4xlGpw/uEnb9aPoO/b6RsZ6YJBeO0toOtXeI3P92Qws
ytj6Y3b4I15cYpTNzeMFUd8djck5M4jS2MN3ImHeHhgdu/fFZTc=
-----END CERTIFICATE-----
